target datalayout = "e-m:e-p270:32:32-p271:32:32-p272:64:64-i64:64-i128:128-f80:128-n8:16:32:64-S128"
target triple = "x86_64-pc-linux-gnu"

%"class.llvm::MCAssembler" = type <{ ptr, %"class.std::unique_ptr", %"class.std::unique_ptr.2", %"class.std::unique_ptr.10", i8, i8, [6 x i8], %"class.llvm::SmallVector", %"class.llvm::SmallVector.18", %"struct.llvm::MCDwarfLineTableParams", [5 x i8], %"class.llvm::SmallPtrSet", i32, [4 x i8] }>
%"class.std::unique_ptr" = type { %"struct.std::__uniq_ptr_data" }
%"struct.std::__uniq_ptr_data" = type { %"class.std::__uniq_ptr_impl" }
%"class.std::__uniq_ptr_impl" = type { %"class.std::tuple" }
%"class.std::tuple" = type { %"struct.std::_Tuple_impl" }
%"struct.std::_Tuple_impl" = type { %"struct.std::_Head_base.1" }
%"struct.std::_Head_base.1" = type { ptr }
%"class.std::unique_ptr.2" = type { %"struct.std::__uniq_ptr_data.3" }
%"struct.std::__uniq_ptr_data.3" = type { %"class.std::__uniq_ptr_impl.4" }
%"class.std::__uniq_ptr_impl.4" = type { %"class.std::tuple.5" }
%"class.std::tuple.5" = type { %"struct.std::_Tuple_impl.6" }
%"struct.std::_Tuple_impl.6" = type { %"struct.std::_Head_base.9" }
%"struct.std::_Head_base.9" = type { ptr }
%"class.std::unique_ptr.10" = type { %"struct.std::__uniq_ptr_data.11" }
%"struct.std::__uniq_ptr_data.11" = type { %"class.std::__uniq_ptr_impl.12" }
%"class.std::__uniq_ptr_impl.12" = type { %"class.std::tuple.13" }
%"class.std::tuple.13" = type { %"struct.std::_Tuple_impl.14" }
%"struct.std::_Tuple_impl.14" = type { %"struct.std::_Head_base.17" }
%"struct.std::_Head_base.17" = type { ptr }
%"class.llvm::SmallVector" = type { %"class.llvm::SmallVectorImpl" }
%"class.llvm::SmallVectorImpl" = type { %"class.llvm::SmallVectorTemplateBase" }
%"class.llvm::SmallVectorTemplateBase" = type { %"class.llvm::SmallVectorTemplateCommon" }
%"class.llvm::SmallVectorTemplateCommon" = type { %"class.llvm::SmallVectorBase" }
%"class.llvm::SmallVectorBase" = type { ptr, i32, i32 }
%"class.llvm::SmallVector.18" = type { %"class.llvm::SmallVectorImpl.19" }
%"class.llvm::SmallVectorImpl.19" = type { %"class.llvm::SmallVectorTemplateBase.20" }
%"class.llvm::SmallVectorTemplateBase.20" = type { %"class.llvm::SmallVectorTemplateCommon.21" }
%"class.llvm::SmallVectorTemplateCommon.21" = type { %"class.llvm::SmallVectorBase" }
%"struct.llvm::MCDwarfLineTableParams" = type { i8, i8, i8 }
%"class.llvm::SmallPtrSet" = type { %"class.llvm::SmallPtrSetImpl.base", [32 x ptr] }
%"class.llvm::SmallPtrSetImpl.base" = type { %"class.llvm::SmallPtrSetImplBase.base" }
%"class.llvm::SmallPtrSetImplBase.base" = type <{ ptr, ptr, i32, i32, i32 }>
%"class.llvm::MCFragment.base" = type <{ ptr, ptr, i64, i32, i8, i8 }>
%"class.llvm::SmallVectorImpl.76" = type { %"class.llvm::SmallVectorTemplateBase.77" }
%"class.llvm::SmallVectorTemplateBase.77" = type { %"class.llvm::SmallVectorTemplateCommon.78" }
%"class.llvm::SmallVectorTemplateCommon.78" = type { %"class.llvm::SmallVectorBase.79" }
%"class.llvm::SmallVectorBase.79" = type { ptr, i64, i64 }
%"class.llvm::SmallVector.169" = type { %"class.llvm::SmallVectorImpl.76", %"struct.llvm::SmallVectorStorage.170" }
%"struct.llvm::SmallVectorStorage.170" = type { [8 x i8] }
%"class.llvm::MCCVInlineLineTableFragment" = type { %"class.llvm::MCFragment.base", i32, i32, i32, ptr, ptr, %"class.llvm::SmallString.181" }
%"class.llvm::SmallString.181" = type { %"class.llvm::SmallVector.169" }

; Function Attrs: mustprogress nounwind uwtable
define linkonce_odr hidden noundef nonnull align 8 dereferenceable(2432) ptr @_ZNK4llvm11MCAssembler10getContextEv(ptr noundef nonnull align 8 dereferenceable(372) %0) #1 comdat align 2 {
  %2 = alloca ptr, align 8
  store ptr %0, ptr %2, align 8
  %3 = load ptr, ptr %2, align 8
  %4 = getelementptr inbounds nuw %"class.llvm::MCAssembler", ptr %3, i32 0, i32 0
  %5 = load ptr, ptr %4, align 8
  ret ptr %5
}

; Function Attrs: mustprogress nounwind uwtable
define linkonce_odr hidden noundef nonnull align 8 dereferenceable(32) ptr @_ZN4llvm27MCCVInlineLineTableFragment11getContentsEv(ptr noundef nonnull align 8 dereferenceable(96) %0) #1 comdat align 2 {
  %2 = alloca ptr, align 8
  store ptr %0, ptr %2, align 8
  %3 = load ptr, ptr %2, align 8
  %4 = getelementptr inbounds nuw %"class.llvm::MCCVInlineLineTableFragment", ptr %3, i32 0, i32 6
  ret ptr %4
}

; Function Attrs: mustprogress nounwind uwtable
define dso_local noundef zeroext i1 @_ZN4llvm11MCAssembler22relaxCVInlineLineTableERNS_27MCCVInlineLineTableFragmentE(ptr noundef nonnull align 8 dereferenceable(372) %0, ptr noundef nonnull align 8 dereferenceable(96) %1) #1 align 2 {
  %3 = alloca ptr, align 8
  %4 = alloca ptr, align 8
  %5 = alloca i32, align 4
  store ptr %0, ptr %3, align 8
  store ptr %1, ptr %4, align 8
  %6 = load ptr, ptr %3, align 8
  %7 = load ptr, ptr %4, align 8
  %8 = call noundef nonnull align 8 dereferenceable(32) ptr @_ZN4llvm27MCCVInlineLineTableFragment11getContentsEv(ptr noundef nonnull align 8 dereferenceable(96) %7)
  %9 = call noundef i64 @_ZNK4llvm15SmallVectorBaseImE4sizeEv(ptr noundef nonnull align 8 dereferenceable(24) %8)
  %10 = trunc i64 %9 to i32
  store i32 %10, ptr %5, align 4
  %11 = call noundef nonnull align 8 dereferenceable(2432) ptr @_ZNK4llvm11MCAssembler10getContextEv(ptr noundef nonnull align 8 dereferenceable(372) %6)
  %12 = call noundef nonnull align 8 dereferenceable(289) ptr @_ZN4llvm9MCContext12getCVContextEv(ptr noundef nonnull align 8 dereferenceable(2432) %11)
  %13 = load ptr, ptr %4, align 8
  call void @_ZN4llvm15CodeViewContext21encodeInlineLineTableERKNS_11MCAssemblerERNS_27MCCVInlineLineTableFragmentE(ptr noundef nonnull align 8 dereferenceable(289) %12, ptr noundef nonnull align 8 dereferenceable(372) %6, ptr noundef nonnull align 8 dereferenceable(96) %13)
  %14 = load i32, ptr %5, align 4
  %15 = zext i32 %14 to i64
  %16 = load ptr, ptr %4, align 8
  %17 = call noundef nonnull align 8 dereferenceable(32) ptr @_ZN4llvm27MCCVInlineLineTableFragment11getContentsEv(ptr noundef nonnull align 8 dereferenceable(96) %16)
  %18 = call noundef i64 @_ZNK4llvm15SmallVectorBaseImE4sizeEv(ptr noundef nonnull align 8 dereferenceable(24) %17)
  %19 = icmp ne i64 %15, %18
  ret i1 %19
}