; Function Attrs: mustprogress nounwind uwtable
define dso_local noundef zeroext i1 @_ZN4llvm11MCAssembler22relaxCVInlineLineTableERNS_27MCCVInlineLineTableFragmentE(ptr noundef nonnull align 8 dereferenceable(372) %0, ptr noundef nonnull align 8 dereferenceable(96) %1) local_unnamed_addr #0 align 2 {
  %3 = getelementptr inbounds nuw i8, ptr %1, i64 64
  %4 = tail call noundef i64 @_ZNK4llvm15SmallVectorBaseImE4sizeEv(ptr noundef nonnull align 8 dereferenceable(24) %3) #11
  %5 = load ptr, ptr %0, align 8
  %6 = tail call noundef nonnull align 8 dereferenceable(289) ptr @_ZN4llvm9MCContext12getCVContextEv(ptr noundef nonnull align 8 dereferenceable(2432) %5) #11
  tail call void @_ZN4llvm15CodeViewContext21encodeInlineLineTableERKNS_11MCAssemblerERNS_27MCCVInlineLineTableFragmentE(ptr noundef nonnull align 8 dereferenceable(289) %6, ptr noundef nonnull align 8 dereferenceable(372) %0, ptr noundef nonnull align 8 dereferenceable(96) %1) #11
  %7 = and i64 %4, 4294967295
  %8 = tail call noundef i64 @_ZNK4llvm15SmallVectorBaseImE4sizeEv(ptr noundef nonnull align 8 dereferenceable(24) %3) #11
  %9 = icmp ne i64 %7, %8
  ret i1 %9
}